; Function Attrs: mustprogress nounwind uwtable
define { double, double } @_ZN8QuantLib5log1pERKSt7complexIdE(ptr nocapture noundef nonnull readonly align 8 dereferenceable(16) %z) local_unnamed_addr #0 {
entry:
  %0 = load double, ptr %z, align 8
  %_M_value.imagp.i = getelementptr inbounds nuw i8, ptr %z, i64 8
  %1 = load double, ptr %_M_value.imagp.i, align 8, !tbaa !7
  %2 = tail call noundef double @llvm.fabs.f64(double %0)
  %cmp = fcmp olt double %2, 5.000000e-01
  %3 = tail call double @llvm.fabs.f64(double %1)
  %cmp4 = fcmp olt double %3, 5.000000e-01
  %or.cond = select i1 %cmp, i1 %cmp4, i1 false
  br i1 %or.cond, label %if.then, label %if.else

if.then:                                          ; preds = %entry
  %mul5 = fmul double %0, 2.000000e+00
  %4 = tail call double @llvm.fmuladd.f64(double %0, double %0, double %mul5)
  %5 = tail call double @llvm.fmuladd.f64(double %1, double %1, double %4)
  %call6 = tail call double @log1p(double noundef %5) #5, !tbaa !3
  %mul = fmul double %call6, 5.000000e-01
  %retval.sroa.0.0.copyload.i = load double, ptr %z, align 8
  %retval.sroa.4.0.copyload.i = load double, ptr %_M_value.imagp.i, align 8, !tbaa !7
  %add.r.i.i = fadd double %retval.sroa.0.0.copyload.i, 1.000000e+00
  %call.i.i = tail call noundef double @carg(double noundef %add.r.i.i, double noundef %retval.sroa.4.0.copyload.i) #5, !tbaa !3
  br label %cleanup

if.else:                                          ; preds = %entry
  %add.r.i.i13 = fadd double %0, 1.000000e+00
  %call.i.i19 = tail call noundef { double, double } @clog(double noundef %add.r.i.i13, double noundef %1) #5
  %6 = extractvalue { double, double } %call.i.i19, 0
  %7 = extractvalue { double, double } %call.i.i19, 1
  br label %cleanup

cleanup:                                          ; preds = %if.else, %if.then
  %retval.sroa.0.0 = phi double [ %mul, %if.then ], [ %6, %if.else ]
  %retval.sroa.3.0 = phi double [ %call.i.i, %if.then ], [ %7, %if.else ]
  %.fca.0.insert = insertvalue { double, double } poison, double %retval.sroa.0.0, 0
  %.fca.1.insert = insertvalue { double, double } %.fca.0.insert, double %retval.sroa.3.0, 1
  ret { double, double } %.fca.1.insert
}